target datalayout = "e-m:e-p270:32:32-p271:32:32-p272:64:64-i64:64-i128:128-f80:128-n8:16:32:64-S128"
target triple = "x86_64-pc-linux-gnu"

; Function Attrs: nounwind uwtable
define internal i32 @decode_int64_internal(ptr noundef %0, ptr noundef %1, i32 noundef %2) #0 {
  %4 = alloca i32, align 4
  %5 = alloca ptr, align 8
  %6 = alloca ptr, align 8
  %7 = alloca i32, align 4
  %8 = alloca i64, align 8
  %9 = alloca ptr, align 8
  %10 = alloca i64, align 8
  %11 = alloca i32, align 4
  %12 = alloca i32, align 4
  store ptr %0, ptr %5, align 8
  store ptr %1, ptr %6, align 8
  store i32 %2, ptr %7, align 4
  call void @llvm.lifetime.start.p0(i64 8, ptr %8) #6
  store i64 0, ptr %8, align 8
  br label %13

13:                                               ; preds = %3
  call void @llvm.lifetime.start.p0(i64 8, ptr %9) #6
  call void @llvm.lifetime.start.p0(i64 8, ptr %10) #6
  %14 = load ptr, ptr %6, align 8
  %15 = call i64 @evbuffer_get_length(ptr noundef %14)
  %16 = load i32, ptr %7, align 4
  %17 = sext i32 %16 to i64
  %18 = sub i64 %15, %17
  store i64 %18, ptr %10, align 8
  call void @llvm.lifetime.start.p0(i64 4, ptr %11) #6
  store i32 0, ptr %11, align 4
  %19 = load i64, ptr %10, align 8
  %20 = icmp sle i64 %19, 0
  br i1 %20, label %21, label %22

21:                                               ; preds = %13
  store i32 -1, ptr %4, align 4
  store i32 1, ptr %12, align 4
  br label %112

22:                                               ; preds = %13
  %23 = load ptr, ptr %6, align 8
  %24 = load i32, ptr %7, align 4
  %25 = add nsw i32 %24, 1
  %26 = sext i32 %25 to i64
  %27 = call ptr @evbuffer_pullup(ptr noundef %23, i64 noundef %26)
  %28 = load i32, ptr %7, align 4
  %29 = sext i32 %28 to i64
  %30 = getelementptr inbounds i8, ptr %27, i64 %29
  store ptr %30, ptr %9, align 8
  %31 = load ptr, ptr %9, align 8
  %32 = icmp ne ptr %31, null
  br i1 %32, label %34, label %33

33:                                               ; preds = %22
  store i32 -1, ptr %4, align 4
  store i32 1, ptr %12, align 4
  br label %112

34:                                               ; preds = %22
  %35 = load ptr, ptr %9, align 8
  %36 = getelementptr inbounds i8, ptr %35, i64 0
  %37 = load i8, ptr %36, align 1
  %38 = zext i8 %37 to i32
  %39 = and i32 %38, 240
  %40 = ashr i32 %39, 4
  %41 = add nsw i32 %40, 1
  store i32 %41, ptr %11, align 4
  %42 = load i32, ptr %11, align 4
  %43 = icmp sgt i32 %42, 16
  br i1 %43, label %51, label %44

44:                                               ; preds = %34
  %45 = load i32, ptr %11, align 4
  %46 = ashr i32 %45, 1
  %47 = add nsw i32 %46, 1
  %48 = sext i32 %47 to i64
  %49 = load i64, ptr %10, align 8
  %50 = icmp sgt i64 %48, %49
  br i1 %50, label %51, label %52

51:                                               ; preds = %44, %34
  store i32 -1, ptr %4, align 4
  store i32 1, ptr %12, align 4
  br label %112

52:                                               ; preds = %44
  %53 = load i32, ptr %11, align 4
  %54 = ashr i32 %53, 1
  %55 = add nsw i32 %54, 1
  %56 = sext i32 %55 to i64
  store i64 %56, ptr %10, align 8
  %57 = load ptr, ptr %6, align 8
  %58 = load i32, ptr %7, align 4
  %59 = sext i32 %58 to i64
  %60 = load i64, ptr %10, align 8
  %61 = add nsw i64 %59, %60
  %62 = call ptr @evbuffer_pullup(ptr noundef %57, i64 noundef %61)
  %63 = load i32, ptr %7, align 4
  %64 = sext i32 %63 to i64
  %65 = getelementptr inbounds i8, ptr %62, i64 %64
  store ptr %65, ptr %9, align 8
  %66 = load ptr, ptr %9, align 8
  %67 = icmp ne ptr %66, null
  br i1 %67, label %69, label %68

68:                                               ; preds = %52
  store i32 -1, ptr %4, align 4
  store i32 1, ptr %12, align 4
  br label %112

69:                                               ; preds = %52
  br label %70

70:                                               ; preds = %104, %69
  %71 = load i32, ptr %11, align 4
  %72 = icmp sgt i32 %71, 0
  br i1 %72, label %73, label %107

73:                                               ; preds = %70
  %74 = load i64, ptr %8, align 8
  %75 = shl i64 %74, 4
  store i64 %75, ptr %8, align 8
  %76 = load i32, ptr %11, align 4
  %77 = and i32 %76, 1
  %78 = icmp ne i32 %77, 0
  br i1 %78, label %79, label %91

79:                                               ; preds = %73
  %80 = load ptr, ptr %9, align 8
  %81 = load i32, ptr %11, align 4
  %82 = ashr i32 %81, 1
  %83 = sext i32 %82 to i64
  %84 = getelementptr inbounds i8, ptr %80, i64 %83
  %85 = load i8, ptr %84, align 1
  %86 = zext i8 %85 to i32
  %87 = and i32 %86, 15
  %88 = sext i32 %87 to i64
  %89 = load i64, ptr %8, align 8
  %90 = or i64 %89, %88
  store i64 %90, ptr %8, align 8
  br label %104

91:                                               ; preds = %73
  %92 = load ptr, ptr %9, align 8
  %93 = load i32, ptr %11, align 4
  %94 = ashr i32 %93, 1
  %95 = sext i32 %94 to i64
  %96 = getelementptr inbounds i8, ptr %92, i64 %95
  %97 = load i8, ptr %96, align 1
  %98 = zext i8 %97 to i32
  %99 = and i32 %98, 240
  %100 = ashr i32 %99, 4
  %101 = sext i32 %100 to i64
  %102 = load i64, ptr %8, align 8
  %103 = or i64 %102, %101
  store i64 %103, ptr %8, align 8
  br label %104

104:                                              ; preds = %91, %79
  %105 = load i32, ptr %11, align 4
  %106 = add nsw i32 %105, -1
  store i32 %106, ptr %11, align 4
  br label %70, !llvm.loop !9

107:                                              ; preds = %70
  %108 = load i64, ptr %8, align 8
  %109 = load ptr, ptr %5, align 8
  store i64 %108, ptr %109, align 8
  %110 = load i64, ptr %10, align 8
  %111 = trunc i64 %110 to i32
  store i32 %111, ptr %4, align 4
  store i32 1, ptr %12, align 4
  br label %112

112:                                              ; preds = %107, %68, %51, %33, %21
  call void @llvm.lifetime.end.p0(i64 4, ptr %11) #6
  call void @llvm.lifetime.end.p0(i64 8, ptr %10) #6
  call void @llvm.lifetime.end.p0(i64 8, ptr %9) #6
  br label %115

113:                                              ; No predecessors!
  br label %114

114:                                              ; preds = %113
  store i32 0, ptr %12, align 4
  br label %115

115:                                              ; preds = %114, %112
  call void @llvm.lifetime.end.p0(i64 8, ptr %8) #6
  %116 = load i32, ptr %12, align 4
  switch i32 %116, label %119 [
    i32 0, label %117
    i32 1, label %117
  ]

117:                                              ; preds = %115, %115
  %118 = load i32, ptr %4, align 4
  ret i32 %118

119:                                              ; preds = %115
  unreachable
}

; Function Attrs: nounwind uwtable
define i32 @evtag_decode_int64(ptr noundef %0, ptr noundef %1) #0 {
  %3 = alloca ptr, align 8
  %4 = alloca ptr, align 8
  %5 = alloca i32, align 4
  store ptr %0, ptr %3, align 8
  store ptr %1, ptr %4, align 8
  call void @llvm.lifetime.start.p0(i64 4, ptr %5) #6
  %6 = load ptr, ptr %3, align 8
  %7 = load ptr, ptr %4, align 8
  %8 = call i32 @decode_int64_internal(ptr noundef %6, ptr noundef %7, i32 noundef 0)
  store i32 %8, ptr %5, align 4
  %9 = load i32, ptr %5, align 4
  %10 = icmp ne i32 %9, -1
  br i1 %10, label %11, label %16

11:                                               ; preds = %2
  %12 = load ptr, ptr %4, align 8
  %13 = load i32, ptr %5, align 4
  %14 = sext i32 %13 to i64
  %15 = call i32 @evbuffer_drain(ptr noundef %12, i64 noundef %14)
  br label %16

16:                                               ; preds = %11, %2
  %17 = load i32, ptr %5, align 4
  %18 = icmp eq i32 %17, -1
  %19 = select i1 %18, i32 -1, i32 0
  call void @llvm.lifetime.end.p0(i64 4, ptr %5) #6
  ret i32 %19
}