; Function Attrs: nounwind uwtable
define range(i32 -1, 1) i32 @evtag_decode_int64(ptr noundef writeonly captures(none) %0, ptr noundef %1) local_unnamed_addr #1 {
  %3 = tail call i64 @evbuffer_get_length(ptr noundef %1) #7
  %4 = icmp slt i64 %3, 1
  br i1 %4, label %decode_int64_internal.exit.thread, label %5

5:                                                ; preds = %2
  %6 = tail call ptr @evbuffer_pullup(ptr noundef %1, i64 noundef 1) #7
  %.not.i = icmp eq ptr %6, null
  br i1 %.not.i, label %decode_int64_internal.exit.thread, label %7

7:                                                ; preds = %5
  %8 = load i8, ptr %6, align 1
  %9 = lshr i8 %8, 4
  %narrow.i = add nuw nsw i8 %9, 1
  %10 = zext nneg i8 %narrow.i to i32
  %11 = lshr i32 %10, 1
  %12 = add nuw nsw i32 %11, 1
  %13 = zext nneg i32 %12 to i64
  %14 = icmp samesign ult i64 %3, %13
  br i1 %14, label %decode_int64_internal.exit.thread, label %15

15:                                               ; preds = %7
  %16 = tail call ptr @evbuffer_pullup(ptr noundef %1, i64 noundef %13) #7
  %.not36.i = icmp eq ptr %16, null
  br i1 %.not36.i, label %decode_int64_internal.exit.thread, label %.preheader.i

.preheader.i:                                     ; preds = %15, %.preheader.i
  %.039.i = phi i32 [ %25, %.preheader.i ], [ %10, %15 ]
  %.03038.i = phi i64 [ %.1.i, %.preheader.i ], [ 0, %15 ]
  %17 = shl i64 %.03038.i, 4
  %18 = and i32 %.039.i, 1
  %.not37.i = icmp eq i32 %18, 0
  %19 = lshr i32 %.039.i, 1
  %20 = zext nneg i32 %19 to i64
  %21 = getelementptr inbounds nuw i8, ptr %16, i64 %20
  %22 = load i8, ptr %21, align 1
  %23 = and i8 %22, 15
  %24 = lshr i8 %22, 4
  %.pn.in.i = select i1 %.not37.i, i8 %24, i8 %23
  %.pn.i = zext nneg i8 %.pn.in.i to i64
  %.1.i = or disjoint i64 %17, %.pn.i
  %25 = add nsw i32 %.039.i, -1
  %26 = icmp samesign ugt i32 %.039.i, 1
  br i1 %26, label %.preheader.i, label %decode_int64_internal.exit, !llvm.loop !8

decode_int64_internal.exit:                       ; preds = %.preheader.i
  store i64 %.1.i, ptr %0, align 8
  %27 = tail call i32 @evbuffer_drain(ptr noundef %1, i64 noundef %13) #7
  br label %decode_int64_internal.exit.thread

decode_int64_internal.exit.thread:                ; preds = %15, %7, %5, %2, %decode_int64_internal.exit
  %.not7 = phi i32 [ 0, %decode_int64_internal.exit ], [ -1, %2 ], [ -1, %5 ], [ -1, %7 ], [ -1, %15 ]
  ret i32 %.not7
}